(dp0
S'google'
p1
(dp2
S'CONSUMER_SECRET'
p3
S'anonymous'
p4
sS'OAUTH_TOKEN'
p5
S'1/ghZKCMqyqcA35S8Q1n_r6AQ5HZPGjgTz1TKmeZNcxx0'
p6
sS'CONSUMER_KEY'
p7
g4
sS'OAUTH_TOKEN_SECRET'
p8
S'48-Nog6v_hONnux9eZpERJqq'
p9
ss.